; Function Attrs: mustprogress nounwind uwtable
define hidden noundef zeroext i1 @_ZN2os5Posix29matches_effective_uid_or_rootEj(i32 noundef %0) local_unnamed_addr #1 align 2 {
  %2 = icmp eq i32 %0, 0
  br i1 %2, label %6, label %3

3:                                                ; preds = %1
  %4 = tail call i32 @geteuid() #25
  %5 = icmp eq i32 %4, %0
  br label %6

6:                                                ; preds = %3, %1
  %7 = phi i1 [ true, %1 ], [ %5, %3 ]
  ret i1 %7
}